; Function Attrs: mustprogress uwtable
define void @_ZN2cv17AVIWriteContainer10jputStreamEj(ptr noundef nonnull readonly align 8 captures(none) dereferenceable(136) %0, i32 noundef %1) local_unnamed_addr #4 align 2 {
  %3 = load ptr, ptr %0, align 8, !tbaa !153
  %4 = getelementptr inbounds nuw i8, ptr %3, i64 552
  %5 = load ptr, ptr %4, align 8, !tbaa !133
  %6 = lshr i32 %1, 24
  %7 = trunc nuw i32 %6 to i8
  %8 = getelementptr inbounds nuw i8, ptr %5, i64 1
  store i8 %7, ptr %5, align 1, !tbaa !27
  %9 = icmp eq i32 %6, 255
  br i1 %9, label %10, label %12

10:                                               ; preds = %2
  %11 = getelementptr inbounds nuw i8, ptr %5, i64 2
  store i8 0, ptr %8, align 1, !tbaa !27
  br label %12

12:                                               ; preds = %10, %2
  %.0.i = phi ptr [ %11, %10 ], [ %8, %2 ]
  %13 = lshr i32 %1, 16
  %14 = trunc i32 %13 to i8
  %15 = getelementptr inbounds nuw i8, ptr %.0.i, i64 1
  store i8 %14, ptr %.0.i, align 1, !tbaa !27
  %16 = and i32 %1, 16711680
  %17 = icmp eq i32 %16, 16711680
  br i1 %17, label %18, label %20

18:                                               ; preds = %12
  %19 = getelementptr inbounds nuw i8, ptr %.0.i, i64 2
  store i8 0, ptr %15, align 1, !tbaa !27
  br label %20

20:                                               ; preds = %18, %12
  %.1.i = phi ptr [ %19, %18 ], [ %15, %12 ]
  %21 = lshr i32 %1, 8
  %22 = trunc i32 %21 to i8
  %23 = getelementptr inbounds nuw i8, ptr %.1.i, i64 1
  store i8 %22, ptr %.1.i, align 1, !tbaa !27
  %24 = and i32 %1, 65280
  %25 = icmp eq i32 %24, 65280
  br i1 %25, label %26, label %28

26:                                               ; preds = %20
  %27 = getelementptr inbounds nuw i8, ptr %.1.i, i64 2
  store i8 0, ptr %23, align 1, !tbaa !27
  br label %28

28:                                               ; preds = %26, %20
  %.2.i = phi ptr [ %27, %26 ], [ %23, %20 ]
  %29 = trunc i32 %1 to i8
  %30 = getelementptr inbounds nuw i8, ptr %.2.i, i64 1
  store i8 %29, ptr %.2.i, align 1, !tbaa !27
  %31 = and i32 %1, 255
  %32 = icmp eq i32 %31, 255
  br i1 %32, label %33, label %35

33:                                               ; preds = %28
  %34 = getelementptr inbounds nuw i8, ptr %.2.i, i64 2
  store i8 0, ptr %30, align 1, !tbaa !27
  br label %35

35:                                               ; preds = %33, %28
  %.3.i = phi ptr [ %34, %33 ], [ %30, %28 ]
  store ptr %.3.i, ptr %4, align 8, !tbaa !133
  %36 = getelementptr inbounds nuw i8, ptr %3, i64 544
  %37 = load ptr, ptr %36, align 8, !tbaa !130
  %.not.i = icmp ult ptr %.3.i, %37
  br i1 %.not.i, label %_ZN2cv9BitStream4jputEj.exit, label %38

38:                                               ; preds = %35
  %39 = getelementptr inbounds nuw i8, ptr %3, i64 536
  %40 = load ptr, ptr %39, align 8, !tbaa !123
  %41 = ptrtoint ptr %.3.i to i64
  %42 = ptrtoint ptr %40 to i64
  %43 = sub i64 %41, %42
  %44 = icmp sgt i64 %43, 0
  br i1 %44, label %45, label %_ZN2cv9BitStream10writeBlockEv.exit.i

45:                                               ; preds = %38
  %46 = tail call noundef nonnull align 8 dereferenceable(8) ptr @_ZNSo5writeEPKcl(ptr noundef nonnull align 8 dereferenceable(569) %3, ptr noundef %40, i64 noundef %43)
  %.pre.i.i = load ptr, ptr %39, align 8, !tbaa !123
  br label %_ZN2cv9BitStream10writeBlockEv.exit.i

_ZN2cv9BitStream10writeBlockEv.exit.i:            ; preds = %45, %38
  %47 = phi ptr [ %.pre.i.i, %45 ], [ %40, %38 ]
  %48 = getelementptr inbounds nuw i8, ptr %3, i64 560
  %49 = load i64, ptr %48, align 8, !tbaa !134
  %50 = add i64 %49, %43
  store i64 %50, ptr %48, align 8, !tbaa !134
  store ptr %47, ptr %4, align 8, !tbaa !133
  br label %_ZN2cv9BitStream4jputEj.exit

_ZN2cv9BitStream4jputEj.exit:                     ; preds = %35, %_ZN2cv9BitStream10writeBlockEv.exit.i
  ret void
}